target datalayout = "e-m:e-p270:32:32-p271:32:32-p272:64:64-i64:64-i128:128-f80:128-n8:16:32:64-S128"
target triple = "x86_64-unknown-linux-gnu"

@_ZN6icu_75L20gSpecialReorderCodesE = internal constant [5 x ptr] [ptr @.str.74, ptr @.str.75, ptr @.str.76, ptr @.str.77, ptr @.str.78], align 16
@.str.55 = private unnamed_addr constant [7 x i8] c"others\00", align 1

; Function Attrs: mustprogress uwtable
define noundef i32 @_ZN6icu_7519CollationRuleParser14getReorderCodeEPKc(ptr noundef %word) #1 align 2 {
entry:
  %retval = alloca i32, align 4
  %word.addr = alloca ptr, align 8
  %i = alloca i32, align 4
  %script = alloca i32, align 4
  store ptr %word, ptr %word.addr, align 8
  store i32 0, ptr %i, align 4
  br label %for.cond

for.cond:                                         ; preds = %for.inc, %entry
  %0 = load i32, ptr %i, align 4
  %cmp = icmp slt i32 %0, 5
  br i1 %cmp, label %for.body, label %for.end

for.body:                                         ; preds = %for.cond
  %1 = load ptr, ptr %word.addr, align 8
  %2 = load i32, ptr %i, align 4
  %idxprom = sext i32 %2 to i64
  %arrayidx = getelementptr inbounds [5 x ptr], ptr @_ZN6icu_75L20gSpecialReorderCodesE, i64 0, i64 %idxprom
  %3 = load ptr, ptr %arrayidx, align 8
  %call = call i32 @uprv_stricmp_75(ptr noundef %1, ptr noundef %3)
  %cmp1 = icmp eq i32 %call, 0
  br i1 %cmp1, label %if.then, label %if.end

if.then:                                          ; preds = %for.body
  %4 = load i32, ptr %i, align 4
  %add = add nsw i32 4096, %4
  store i32 %add, ptr %retval, align 4
  br label %return

if.end:                                           ; preds = %for.body
  br label %for.inc

for.inc:                                          ; preds = %if.end
  %5 = load i32, ptr %i, align 4
  %inc = add nsw i32 %5, 1
  store i32 %inc, ptr %i, align 4
  br label %for.cond, !llvm.loop !20

for.end:                                          ; preds = %for.cond
  %6 = load ptr, ptr %word.addr, align 8
  %call2 = call i32 @u_getPropertyValueEnum_75(i32 noundef 4106, ptr noundef %6)
  store i32 %call2, ptr %script, align 4
  %7 = load i32, ptr %script, align 4
  %cmp3 = icmp sge i32 %7, 0
  br i1 %cmp3, label %if.then4, label %if.end5

if.then4:                                         ; preds = %for.end
  %8 = load i32, ptr %script, align 4
  store i32 %8, ptr %retval, align 4
  br label %return

if.end5:                                          ; preds = %for.end
  %9 = load ptr, ptr %word.addr, align 8
  %call6 = call i32 @uprv_stricmp_75(ptr noundef %9, ptr noundef @.str.55)
  %cmp7 = icmp eq i32 %call6, 0
  br i1 %cmp7, label %if.then8, label %if.end9

if.then8:                                         ; preds = %if.end5
  store i32 103, ptr %retval, align 4
  br label %return

if.end9:                                          ; preds = %if.end5
  store i32 -1, ptr %retval, align 4
  br label %return

return:                                           ; preds = %if.end9, %if.then8, %if.then4, %if.then
  %10 = load i32, ptr %retval, align 4
  ret i32 %10
}