; Function Attrs: mustprogress uwtable
define noundef i32 @_ZN6icu_7519CollationRuleParser14getReorderCodeEPKc(ptr noundef %word) local_unnamed_addr #1 align 2 {
entry:
  br label %for.body

for.body:                                         ; preds = %entry, %for.inc
  %indvars.iv = phi i64 [ 0, %entry ], [ %indvars.iv.next, %for.inc ]
  %arrayidx = getelementptr inbounds [5 x ptr], ptr @_ZN6icu_75L20gSpecialReorderCodesE, i64 0, i64 %indvars.iv
  %0 = load ptr, ptr %arrayidx, align 8
  %call = tail call i32 @uprv_stricmp_75(ptr noundef %word, ptr noundef %0)
  %cmp1 = icmp eq i32 %call, 0
  br i1 %cmp1, label %if.then, label %for.inc

if.then:                                          ; preds = %for.body
  %1 = trunc i64 %indvars.iv to i32
  %add = or disjoint i32 %1, 4096
  br label %return

for.inc:                                          ; preds = %for.body
  %indvars.iv.next = add nuw nsw i64 %indvars.iv, 1
  %exitcond.not = icmp eq i64 %indvars.iv.next, 5
  br i1 %exitcond.not, label %for.end, label %for.body, !llvm.loop !19

for.end:                                          ; preds = %for.inc
  %call2 = tail call i32 @u_getPropertyValueEnum_75(i32 noundef 4106, ptr noundef %word)
  %cmp3 = icmp sgt i32 %call2, -1
  br i1 %cmp3, label %return, label %if.end5

if.end5:                                          ; preds = %for.end
  %call6 = tail call i32 @uprv_stricmp_75(ptr noundef %word, ptr noundef nonnull @.str.55)
  %cmp7 = icmp eq i32 %call6, 0
  %. = select i1 %cmp7, i32 103, i32 -1
  br label %return

return:                                           ; preds = %if.end5, %for.end, %if.then
  %retval.0 = phi i32 [ %add, %if.then ], [ %call2, %for.end ], [ %., %if.end5 ]
  ret i32 %retval.0
}